; Function Attrs: nounwind uwtable
define ptr @l_Lake_Toml_chFn(i32 noundef %0, ptr noundef %1, ptr noundef readonly captures(none) %2, ptr noundef %3) local_unnamed_addr #1 {
  %5 = getelementptr inbounds nuw i8, ptr %3, i64 24
  %6 = load ptr, ptr %5, align 8, !tbaa !10
  %7 = ptrtoint ptr %6 to i64
  %8 = and i64 %7, 1
  %.not = icmp eq i64 %8, 0
  br i1 %.not, label %9, label %lean_string_utf8_at_end.exit

9:                                                ; preds = %4
  %.val.i = load i32, ptr %6, align 4, !tbaa !4
  %10 = icmp sgt i32 %.val.i, 0
  br i1 %10, label %11, label %13, !prof !9

11:                                               ; preds = %9
  %12 = add nuw i32 %.val.i, 1
  store i32 %12, ptr %6, align 4, !tbaa !4
  br label %58

13:                                               ; preds = %9
  %.not.i39 = icmp eq i32 %.val.i, 0
  br i1 %.not.i39, label %lean_dec.exit, label %14

14:                                               ; preds = %13
  tail call void @lean_inc_ref_cold(ptr noundef nonnull %6) #4
  %.pr = load i32, ptr %6, align 4, !tbaa !4
  br label %58

lean_string_utf8_at_end.exit:                     ; preds = %4
  %15 = getelementptr inbounds nuw i8, ptr %2, i64 8
  %16 = load ptr, ptr %15, align 8, !tbaa !10
  %17 = getelementptr inbounds nuw i8, ptr %16, i64 8
  %18 = load ptr, ptr %17, align 8, !tbaa !10
  %19 = lshr i64 %7, 1
  %20 = getelementptr i8, ptr %18, i64 8
  %.val.i41 = load i64, ptr %20, align 8, !tbaa !16
  %21 = add i64 %.val.i41, -1
  %.not48 = icmp ult i64 %19, %21
  br i1 %.not48, label %22, label %lean_dec.exit

22:                                               ; preds = %lean_string_utf8_at_end.exit
  %23 = getelementptr inbounds nuw i8, ptr %18, i64 32
  %24 = getelementptr inbounds nuw i8, ptr %23, i64 %19
  %25 = load i8, ptr %24, align 1, !tbaa !18
  %26 = icmp sgt i8 %25, -1
  br i1 %26, label %27, label %29

27:                                               ; preds = %22
  %28 = zext nneg i8 %25 to i32
  br label %lean_string_utf8_get_fast.exit

29:                                               ; preds = %22
  %30 = tail call i32 @lean_string_utf8_get_fast_cold(ptr noundef nonnull %23, i64 noundef %19, i64 noundef %.val.i41, i8 noundef zeroext %25) #4
  br label %lean_string_utf8_get_fast.exit

lean_string_utf8_get_fast.exit:                   ; preds = %27, %29
  %.0.i = phi i32 [ %28, %27 ], [ %30, %29 ]
  %.not49 = icmp eq i32 %.0.i, %0
  br i1 %.not49, label %47, label %lean_dec.exit32

lean_dec.exit32:                                  ; preds = %lean_string_utf8_get_fast.exit
  %31 = load ptr, ptr @l_Lake_Toml_mkUnexpectedCharError___closed__1, align 8, !tbaa !10
  %32 = tail call ptr @lean_string_push(ptr noundef %31, i32 noundef %.0.i) #4
  %33 = load ptr, ptr @l_Lake_Toml_mkUnexpectedCharError___closed__2, align 8, !tbaa !10
  %34 = tail call ptr @lean_string_append(ptr noundef %33, ptr noundef %32) #4
  %35 = ptrtoint ptr %32 to i64
  %36 = and i64 %35, 1
  %.not.i43 = icmp eq i64 %36, 0
  br i1 %.not.i43, label %37, label %l_Lake_Toml_mkUnexpectedCharError.exit

37:                                               ; preds = %lean_dec.exit32
  %38 = load i32, ptr %32, align 4, !tbaa !4
  %39 = icmp sgt i32 %38, 1
  br i1 %39, label %40, label %42, !prof !9

40:                                               ; preds = %37
  %41 = add nsw i32 %38, -1
  store i32 %41, ptr %32, align 4, !tbaa !4
  br label %l_Lake_Toml_mkUnexpectedCharError.exit

42:                                               ; preds = %37
  %.not.i.i = icmp eq i32 %38, 0
  br i1 %.not.i.i, label %l_Lake_Toml_mkUnexpectedCharError.exit, label %43

43:                                               ; preds = %42
  tail call void @lean_dec_ref_cold(ptr noundef nonnull %32) #4
  br label %l_Lake_Toml_mkUnexpectedCharError.exit

l_Lake_Toml_mkUnexpectedCharError.exit:           ; preds = %lean_dec.exit32, %40, %42, %43
  %44 = load ptr, ptr @l_Lake_Toml_mkUnexpectedCharError___closed__3, align 8, !tbaa !10
  %45 = tail call ptr @lean_string_append(ptr noundef %34, ptr noundef %44) #4
  %46 = tail call ptr @l_Lean_Parser_ParserState_mkUnexpectedError(ptr noundef nonnull %3, ptr noundef %45, ptr noundef %1, i8 noundef zeroext 1) #4
  br label %67

47:                                               ; preds = %lean_string_utf8_get_fast.exit
  %48 = ptrtoint ptr %1 to i64
  %49 = and i64 %48, 1
  %.not50 = icmp eq i64 %49, 0
  br i1 %.not50, label %50, label %lean_dec.exit30

50:                                               ; preds = %47
  %51 = load i32, ptr %1, align 4, !tbaa !4
  %52 = icmp sgt i32 %51, 1
  br i1 %52, label %53, label %55, !prof !9

53:                                               ; preds = %50
  %54 = add nsw i32 %51, -1
  store i32 %54, ptr %1, align 4, !tbaa !4
  br label %lean_dec.exit30

55:                                               ; preds = %50
  %.not.i33 = icmp eq i32 %51, 0
  br i1 %.not.i33, label %lean_dec.exit30, label %56

56:                                               ; preds = %55
  tail call void @lean_dec_ref_cold(ptr noundef nonnull %1) #4
  br label %lean_dec.exit30

lean_dec.exit30:                                  ; preds = %47, %53, %55, %56
  %57 = tail call ptr @l_Lean_Parser_ParserState_next_x27(ptr noundef nonnull %3, ptr noundef nonnull %18, ptr noundef %6, ptr noundef nonnull inttoptr (i64 1 to ptr)) #4
  br label %67

58:                                               ; preds = %11, %14
  %59 = phi i32 [ %12, %11 ], [ %.pr, %14 ]
  %60 = icmp sgt i32 %59, 1
  br i1 %60, label %61, label %63, !prof !14

61:                                               ; preds = %58
  %62 = add nsw i32 %59, -1
  store i32 %62, ptr %6, align 4, !tbaa !4
  br label %lean_dec.exit

63:                                               ; preds = %58
  %.not.i37 = icmp eq i32 %59, 0
  br i1 %.not.i37, label %lean_dec.exit, label %64

64:                                               ; preds = %63
  tail call void @lean_dec_ref_cold(ptr noundef nonnull %6) #4
  br label %lean_dec.exit

lean_dec.exit:                                    ; preds = %lean_string_utf8_at_end.exit, %13, %64, %63, %61
  %65 = load ptr, ptr @l_Lake_Toml_satisfyFn___closed__1, align 8, !tbaa !10
  %66 = tail call ptr @l_Lean_Parser_ParserState_mkUnexpectedError(ptr noundef nonnull %3, ptr noundef %65, ptr noundef %1, i8 noundef zeroext 1) #4
  br label %67

67:                                               ; preds = %l_Lake_Toml_mkUnexpectedCharError.exit, %lean_dec.exit30, %lean_dec.exit
  %.1 = phi ptr [ %66, %lean_dec.exit ], [ %46, %l_Lake_Toml_mkUnexpectedCharError.exit ], [ %57, %lean_dec.exit30 ]
  ret ptr %.1
}